target datalayout = "e-m:e-p270:32:32-p271:32:32-p272:64:64-i64:64-i128:128-f80:128-n8:16:32:64-S128"
target triple = "x86_64-pc-linux-gnu"

; Function Attrs: nounwind uwtable
define internal i64 @getGaussianRand(ptr noundef %0, i64 noundef %1, i64 noundef %2, double noundef %3) #0 {
  %5 = alloca ptr, align 8
  %6 = alloca i64, align 8
  %7 = alloca i64, align 8
  %8 = alloca double, align 8
  %9 = alloca double, align 8
  %10 = alloca double, align 8
  store ptr %0, ptr %5, align 8
  store i64 %1, ptr %6, align 8
  store i64 %2, ptr %7, align 8
  store double %3, ptr %8, align 8
  call void @llvm.lifetime.start.p0(i64 8, ptr %9) #14
  call void @llvm.lifetime.start.p0(i64 8, ptr %10) #14
  br label %11

11:                                               ; preds = %23, %4
  %12 = load ptr, ptr %5, align 8
  %13 = call double @pg_prng_double_normal(ptr noundef %12)
  store double %13, ptr %9, align 8
  br label %14

14:                                               ; preds = %11
  %15 = load double, ptr %9, align 8
  %16 = load double, ptr %8, align 8
  %17 = fneg double %16
  %18 = fcmp olt double %15, %17
  br i1 %18, label %23, label %19

19:                                               ; preds = %14
  %20 = load double, ptr %9, align 8
  %21 = load double, ptr %8, align 8
  %22 = fcmp oge double %20, %21
  br label %23

23:                                               ; preds = %19, %14
  %24 = phi i1 [ true, %14 ], [ %22, %19 ]
  br i1 %24, label %11, label %25, !llvm.loop !76

25:                                               ; preds = %23
  %26 = load double, ptr %9, align 8
  %27 = load double, ptr %8, align 8
  %28 = fadd double %26, %27
  %29 = load double, ptr %8, align 8
  %30 = fmul double %29, 2.000000e+00
  %31 = fdiv double %28, %30
  store double %31, ptr %10, align 8
  %32 = load i64, ptr %6, align 8
  %33 = load i64, ptr %7, align 8
  %34 = load i64, ptr %6, align 8
  %35 = sub i64 %33, %34
  %36 = add i64 %35, 1
  %37 = sitofp i64 %36 to double
  %38 = load double, ptr %10, align 8
  %39 = fmul double %37, %38
  %40 = fptosi double %39 to i64
  %41 = add i64 %32, %40
  call void @llvm.lifetime.end.p0(i64 8, ptr %10) #14
  call void @llvm.lifetime.end.p0(i64 8, ptr %9) #14
  ret i64 %41
}