; Function Attrs: nounwind uwtable
define internal fastcc i64 @getGaussianRand(ptr noundef %0, i64 noundef %1, i64 noundef %2, double noundef %3) unnamed_addr #0 {
  %5 = fneg double %3
  br label %6

6:                                                ; preds = %6, %4
  %7 = tail call double @pg_prng_double_normal(ptr noundef %0) #25
  %8 = fcmp olt double %7, %5
  %9 = fcmp oge double %7, %3
  %10 = or i1 %8, %9
  br i1 %10, label %6, label %11, !llvm.loop !79

11:                                               ; preds = %6
  %12 = fadd double %3, %7
  %13 = fmul double %3, 2.000000e+00
  %14 = fdiv double %12, %13
  %reass.sub = sub i64 %2, %1
  %15 = add i64 %reass.sub, 1
  %16 = sitofp i64 %15 to double
  %17 = fmul double %14, %16
  %18 = fptosi double %17 to i64
  %19 = add i64 %1, %18
  ret i64 %19
}